; Function Attrs: mustprogress uwtable
define noundef zeroext i1 @_ZN32pxrInternal_v0_24__pxrReserved__13UsdGeomSphere13ComputeExtentEdRKNS_10GfMatrix4dEPNS_7VtArrayINS_7GfVec3fEEE(double noundef %0, ptr noundef nonnull align 8 dereferenceable(128) %1, ptr noundef nonnull %2) local_unnamed_addr #0 align 2 {
  %4 = alloca %"class.pxrInternal_v0_24__pxrReserved__::GfBBox3d", align 8
  %5 = alloca %"class.pxrInternal_v0_24__pxrReserved__::GfRange3d", align 8
  tail call void @_ZN32pxrInternal_v0_24__pxrReserved__7VtArrayINS_7GfVec3fEE6resizeEm(ptr noundef nonnull align 8 dereferenceable(40) %2, i64 noundef 2)
  %6 = fneg double %0
  %7 = getelementptr inbounds i8, ptr %4, i64 16
  %8 = getelementptr inbounds i8, ptr %4, i64 8
  %9 = getelementptr inbounds nuw i8, ptr %4, i64 24
  %10 = getelementptr inbounds i8, ptr %4, i64 40
  %11 = getelementptr inbounds i8, ptr %4, i64 32
  store double %6, ptr %4, align 8
  store double %6, ptr %8, align 8
  store double %6, ptr %7, align 8
  store double %0, ptr %9, align 8
  store double %0, ptr %11, align 8
  store double %0, ptr %10, align 8
  call void @_ZN32pxrInternal_v0_24__pxrReserved__8GfBBox3d12_SetMatricesERKNS_10GfMatrix4dE(ptr noundef nonnull align 8 dereferenceable(306) %4, ptr noundef nonnull align 8 dereferenceable(128) %1)
  %12 = getelementptr inbounds nuw i8, ptr %4, i64 305
  store i8 0, ptr %12, align 1
  call void @_ZNK32pxrInternal_v0_24__pxrReserved__8GfBBox3d19ComputeAlignedRangeEv(ptr dead_on_unwind nonnull writable sret(%"class.pxrInternal_v0_24__pxrReserved__::GfRange3d") align 8 %5, ptr noundef nonnull align 8 dereferenceable(306) %4)
  %13 = load double, ptr %5, align 8
  %14 = fptrunc double %13 to float
  %15 = getelementptr inbounds i8, ptr %5, i64 8
  %16 = load double, ptr %15, align 8
  %17 = fptrunc double %16 to float
  %18 = getelementptr inbounds i8, ptr %5, i64 16
  %19 = load double, ptr %18, align 8
  %20 = fptrunc double %19 to float
  %21 = call noundef nonnull align 4 dereferenceable(12) ptr @_ZN32pxrInternal_v0_24__pxrReserved__7VtArrayINS_7GfVec3fEEixEm(ptr noundef nonnull align 8 dereferenceable(40) %2, i64 noundef 0)
  store float %14, ptr %21, align 4
  %.sroa.27.0..sroa_idx = getelementptr inbounds i8, ptr %21, i64 4
  store float %17, ptr %.sroa.27.0..sroa_idx, align 4
  %.sroa.38.0..sroa_idx = getelementptr inbounds i8, ptr %21, i64 8
  store float %20, ptr %.sroa.38.0..sroa_idx, align 4
  %22 = getelementptr inbounds nuw i8, ptr %5, i64 24
  %23 = load double, ptr %22, align 8
  %24 = fptrunc double %23 to float
  %25 = getelementptr inbounds i8, ptr %5, i64 32
  %26 = load double, ptr %25, align 8
  %27 = fptrunc double %26 to float
  %28 = getelementptr inbounds i8, ptr %5, i64 40
  %29 = load double, ptr %28, align 8
  %30 = fptrunc double %29 to float
  %31 = call noundef nonnull align 4 dereferenceable(12) ptr @_ZN32pxrInternal_v0_24__pxrReserved__7VtArrayINS_7GfVec3fEEixEm(ptr noundef nonnull align 8 dereferenceable(40) %2, i64 noundef 1)
  store float %24, ptr %31, align 4
  %.sroa.2.0..sroa_idx = getelementptr inbounds i8, ptr %31, i64 4
  store float %27, ptr %.sroa.2.0..sroa_idx, align 4
  %.sroa.3.0..sroa_idx = getelementptr inbounds i8, ptr %31, i64 8
  store float %30, ptr %.sroa.3.0..sroa_idx, align 4
  ret i1 true
}